ccopy_reg
_reconstructor
p0
(c__main__
New_Query_Counter
p1
c__builtin__
object
p2
Ntp3
Rp4
(dp5
S'word_count_table'
p6
(dp7
V20
p8
I1
sV21
p9
I4
sV22
p10
I2
sV1
p11
I1
sV3
p12
I1
sV2
p13
I1
sV5
p14
I2
sV4
p15
I1
sV7
p16
I1
sV6
p17
I1
sV9
p18
I1
sV8
p19
I2
sV28.print
p20
I1
sV<html><button></button><html>
p21
I1
sV<script>document.getElementsByName('history')[0].className='NEWNEWNEW';</script>
p22
I1
sV11
p23
I1
sV10
p24
I1
sV13
p25
I1
sV12
p26
I1
sV15
p27
I1
sV14
p28
I1
sV17
p29
I1
sV16
p30
I1
sV19
p31
I1
sV18
p32
I1
sV<script>document.getElementsByName('history')[0].className='NEWNEWNEW';
p33
I1
ssS'top_20_list'
p34
(lp35
V21
p36
ag14
ag19
aV22
p37
ag11
ag13
ag12
ag15
ag17
ag16
ag18
ag24
ag23
ag26
ag25
ag28
ag27
ag30
ag29
ag32
asb.